; Function Attrs: mustprogress uwtable
define dso_local void @_ZNK4base15DictionaryValue28DeepCopyWithoutEmptyChildrenEv(ptr noalias nocapture sret(%"class.std::unique_ptr.25") align 8 %agg.result, ptr noundef nonnull align 8 dereferenceable(64) %this) local_unnamed_addr #3 align 2 personality ptr @__gxx_personality_v0 {
entry:
  tail call fastcc void @_ZN4base12_GLOBAL__N_134CopyDictionaryWithoutEmptyChildrenERKNS_15DictionaryValueE(ptr noalias align 8 %agg.result, ptr noundef nonnull align 8 dereferenceable(64) %this)
  %0 = load ptr, ptr %agg.result, align 8
  %cmp.i.not = icmp eq ptr %0, null
  br i1 %cmp.i.not, label %if.then, label %nrvo.skipdtor

if.then:                                          ; preds = %entry
  %call2 = invoke noalias noundef nonnull dereferenceable(64) ptr @_Znwm(i64 noundef 64) #25
          to label %_ZNSt10unique_ptrIN4base15DictionaryValueESt14default_deleteIS1_EE5resetEPS1_.exit unwind label %_ZNSt10unique_ptrIN4base15DictionaryValueESt14default_deleteIS1_EED2Ev.exit

_ZNSt10unique_ptrIN4base15DictionaryValueESt14default_deleteIS1_EE5resetEPS1_.exit: ; preds = %if.then
  %type_.i.i = getelementptr inbounds i8, ptr %call2, i64 8
  store i32 6, ptr %type_.i.i, align 8
  store ptr getelementptr inbounds ({ [21 x ptr] }, ptr @_ZTVN4base15DictionaryValueE, i64 0, i32 0, i64 2), ptr %call2, align 8
  %1 = getelementptr inbounds i8, ptr %call2, i64 24
  store i32 0, ptr %1, align 8
  %_M_parent.i.i.i.i.i.i = getelementptr inbounds i8, ptr %call2, i64 32
  store ptr null, ptr %_M_parent.i.i.i.i.i.i, align 8
  %_M_left.i.i.i.i.i.i = getelementptr inbounds i8, ptr %call2, i64 40
  store ptr %1, ptr %_M_left.i.i.i.i.i.i, align 8
  %_M_right.i.i.i.i.i.i = getelementptr inbounds i8, ptr %call2, i64 48
  store ptr %1, ptr %_M_right.i.i.i.i.i.i, align 8
  %_M_node_count.i.i.i.i.i.i = getelementptr inbounds i8, ptr %call2, i64 56
  store i64 0, ptr %_M_node_count.i.i.i.i.i.i, align 8
  store ptr %call2, ptr %agg.result, align 8
  br label %nrvo.skipdtor

_ZNSt10unique_ptrIN4base15DictionaryValueESt14default_deleteIS1_EED2Ev.exit: ; preds = %if.then
  %2 = landingpad { ptr, i32 }
          cleanup
  store ptr null, ptr %agg.result, align 8
  resume { ptr, i32 } %2

nrvo.skipdtor:                                    ; preds = %entry, %_ZNSt10unique_ptrIN4base15DictionaryValueESt14default_deleteIS1_EE5resetEPS1_.exit
  ret void
}